target datalayout = "e-m:e-p270:32:32-p271:32:32-p272:64:64-i64:64-i128:128-f80:128-n8:16:32:64-S128"
target triple = "x86_64-pc-linux-gnu"

%struct.SpringSmoother_struct = type { ptr, ptr }

; Function Attrs: nounwind uwtable
define void @SpringSmoother_smooth(ptr noundef %0, ptr noundef %1, i32 noundef %2, ptr noundef %3) #0 {
  %5 = alloca ptr, align 8
  %6 = alloca ptr, align 8
  %7 = alloca i32, align 4
  %8 = alloca ptr, align 8
  %9 = alloca i32, align 4
  store ptr %0, ptr %5, align 8, !tbaa !114
  store ptr %1, ptr %6, align 8, !tbaa !3
  store i32 %2, ptr %7, align 4, !tbaa !8
  store ptr %3, ptr %8, align 8, !tbaa !12
  call void @llvm.lifetime.start.p0(i64 4, ptr %9) #10
  store i32 0, ptr %9, align 4, !tbaa !8
  %10 = load i32, ptr %7, align 4, !tbaa !8
  %11 = load ptr, ptr %6, align 8, !tbaa !3
  %12 = load ptr, ptr %5, align 8, !tbaa !114
  %13 = getelementptr inbounds nuw %struct.SpringSmoother_struct, ptr %12, i32 0, i32 0
  %14 = load ptr, ptr %13, align 8, !tbaa !123
  %15 = load ptr, ptr %5, align 8, !tbaa !114
  %16 = getelementptr inbounds nuw %struct.SpringSmoother_struct, ptr %15, i32 0, i32 1
  %17 = load ptr, ptr %16, align 8, !tbaa !129
  %18 = load ptr, ptr %8, align 8, !tbaa !12
  call void @spring_electrical_spring_embedding(i32 noundef %10, ptr noundef %11, ptr noundef %14, ptr noundef %17, ptr noundef %18, ptr noundef %9)
  call void @llvm.lifetime.end.p0(i64 4, ptr %9) #10
  ret void
}