; Function Attrs: nounwind uwtable
define void @SpringSmoother_smooth(ptr noundef readonly captures(none) %0, ptr noundef %1, i32 noundef %2, ptr noundef %3) local_unnamed_addr #0 {
  %5 = alloca i32, align 4
  call void @llvm.lifetime.start.p0(i64 4, ptr nonnull %5) #16
  store i32 0, ptr %5, align 4, !tbaa !22
  %6 = load ptr, ptr %0, align 8, !tbaa !100
  %7 = getelementptr inbounds nuw i8, ptr %0, i64 8
  %8 = load ptr, ptr %7, align 8, !tbaa !107
  call void @spring_electrical_spring_embedding(i32 noundef %2, ptr noundef %1, ptr noundef %6, ptr noundef %8, ptr noundef %3, ptr noundef nonnull %5) #16
  call void @llvm.lifetime.end.p0(i64 4, ptr nonnull %5) #16
  ret void
}